target datalayout = "e-m:e-p270:32:32-p271:32:32-p272:64:64-i64:64-i128:128-f80:128-n8:16:32:64-S128"
target triple = "x86_64-unknown-linux-gnu"

%"class.std::unique_ptr.12" = type { %"struct.std::__uniq_ptr_data.13" }
%"struct.std::__uniq_ptr_data.13" = type { %"class.std::__uniq_ptr_impl.14" }
%"class.std::__uniq_ptr_impl.14" = type { %"class.std::tuple.15" }
%"class.std::tuple.15" = type { %"struct.std::_Tuple_impl.16" }
%"struct.std::_Tuple_impl.16" = type { %"struct.std::_Head_base.19" }
%"struct.std::_Head_base.19" = type { ptr }
%"class.grpc_core::EndpointList::Endpoint" = type { %"class.grpc_core::InternallyRefCounted", %"class.grpc_core::RefCountedPtr.11", %"class.std::unique_ptr.12", %"class.std::optional", %"class.grpc_core::RefCountedPtr.20" }
%"class.grpc_core::InternallyRefCounted" = type { %"class.grpc_core::Orphanable", %"class.grpc_core::RefCount" }
%"class.grpc_core::Orphanable" = type { ptr }
%"class.grpc_core::RefCount" = type { %"struct.std::atomic" }
%"struct.std::atomic" = type { %"struct.std::__atomic_base" }
%"struct.std::__atomic_base" = type { i64 }
%"class.grpc_core::RefCountedPtr.11" = type { ptr }
%"class.std::optional" = type { %"struct.std::_Optional_base" }
%"struct.std::_Optional_base" = type { %"struct.std::_Optional_payload" }
%"struct.std::_Optional_payload" = type { %"struct.std::_Optional_payload_base.base", [3 x i8] }
%"struct.std::_Optional_payload_base.base" = type <{ %"union.std::_Optional_payload_base<grpc_connectivity_state>::_Storage", i8 }>
%"union.std::_Optional_payload_base<grpc_connectivity_state>::_Storage" = type { i32 }
%"class.grpc_core::RefCountedPtr.20" = type { ptr }
%"class.grpc_core::RefCountedPtr.135" = type { ptr }

; Function Attrs: mustprogress nounwind uwtable
define linkonce_odr noundef ptr @_ZNK9grpc_core13RefCountedPtrINS_12EndpointListEEptEv(ptr noundef nonnull align 8 dereferenceable(8) %this) #5 comdat align 2 {
entry:
  %this.addr = alloca ptr, align 8
  store ptr %this, ptr %this.addr, align 8
  %this1 = load ptr, ptr %this.addr, align 8
  %value_ = getelementptr inbounds %"class.grpc_core::RefCountedPtr.11", ptr %this1, i32 0, i32 0
  %0 = load ptr, ptr %value_, align 8
  ret ptr %0
}

; Function Attrs: mustprogress uwtable
define void @_ZN9grpc_core12EndpointList8Endpoint16CreateSubchannelERK21grpc_resolved_addressRKNS_11ChannelArgsES7_(ptr noalias sret(%"class.grpc_core::RefCountedPtr.135") align 8 %agg.result, ptr noundef nonnull align 8 dereferenceable(48) %this, ptr noundef nonnull align 4 dereferenceable(132) %address, ptr noundef nonnull align 8 dereferenceable(8) %per_address_args, ptr noundef nonnull align 8 dereferenceable(8) %args) unnamed_addr #4 align 2 {
entry:
  %result.ptr = alloca ptr, align 8
  %this.addr = alloca ptr, align 8
  %address.addr = alloca ptr, align 8
  %per_address_args.addr = alloca ptr, align 8
  %args.addr = alloca ptr, align 8
  store ptr %agg.result, ptr %result.ptr, align 8
  store ptr %this, ptr %this.addr, align 8
  store ptr %address, ptr %address.addr, align 8
  store ptr %per_address_args, ptr %per_address_args.addr, align 8
  store ptr %args, ptr %args.addr, align 8
  %this1 = load ptr, ptr %this.addr, align 8
  %endpoint_list_ = getelementptr inbounds %"class.grpc_core::EndpointList::Endpoint", ptr %this1, i32 0, i32 1
  %call = call noundef ptr @_ZNK9grpc_core13RefCountedPtrINS_12EndpointListEEptEv(ptr noundef nonnull align 8 dereferenceable(8) %endpoint_list_)
  %vtable = load ptr, ptr %call, align 8
  %vfn = getelementptr inbounds ptr, ptr %vtable, i64 3
  %0 = load ptr, ptr %vfn, align 8
  %call2 = call noundef ptr %0(ptr noundef nonnull align 8 dereferenceable(56) %call)
  %1 = load ptr, ptr %address.addr, align 8
  %2 = load ptr, ptr %per_address_args.addr, align 8
  %3 = load ptr, ptr %args.addr, align 8
  %vtable3 = load ptr, ptr %call2, align 8
  %vfn4 = getelementptr inbounds ptr, ptr %vtable3, i64 2
  %4 = load ptr, ptr %vfn4, align 8
  call void %4(ptr sret(%"class.grpc_core::RefCountedPtr.135") align 8 %agg.result, ptr noundef nonnull align 8 dereferenceable(8) %call2, ptr noundef nonnull align 4 dereferenceable(132) %1, ptr noundef nonnull align 8 dereferenceable(8) %2, ptr noundef nonnull align 8 dereferenceable(8) %3)
  ret void
}