; Function Attrs: mustprogress uwtable
define void @_ZN9grpc_core12EndpointList8Endpoint16CreateSubchannelERK21grpc_resolved_addressRKNS_11ChannelArgsES7_(ptr noalias sret(%"class.grpc_core::RefCountedPtr.135") align 8 %agg.result, ptr nocapture noundef nonnull readonly align 8 dereferenceable(48) %this, ptr noundef nonnull align 4 dereferenceable(132) %address, ptr noundef nonnull align 8 dereferenceable(8) %per_address_args, ptr noundef nonnull align 8 dereferenceable(8) %args) unnamed_addr #3 align 2 {
entry:
  %endpoint_list_ = getelementptr inbounds i8, ptr %this, i64 16
  %0 = load ptr, ptr %endpoint_list_, align 8
  %vtable = load ptr, ptr %0, align 8
  %vfn = getelementptr inbounds i8, ptr %vtable, i64 24
  %1 = load ptr, ptr %vfn, align 8
  %call2 = tail call noundef ptr %1(ptr noundef nonnull align 8 dereferenceable(56) %0)
  %vtable3 = load ptr, ptr %call2, align 8
  %vfn4 = getelementptr inbounds i8, ptr %vtable3, i64 16
  %2 = load ptr, ptr %vfn4, align 8
  tail call void %2(ptr sret(%"class.grpc_core::RefCountedPtr.135") align 8 %agg.result, ptr noundef nonnull align 8 dereferenceable(8) %call2, ptr noundef nonnull align 4 dereferenceable(132) %address, ptr noundef nonnull align 8 dereferenceable(8) %per_address_args, ptr noundef nonnull align 8 dereferenceable(8) %args)
  ret void
}